; ModuleID = '34/842.c'
source_filename = "34/842.c"
target datalayout = "e-m:e-p270:32:32-p271:32:32-p272:64:64-i64:64-f80:128-n8:16:32:64-S128"
target triple = "x86_64-pc-linux-gnu"

@.str = private unnamed_addr constant [3 x i8] c"%d\00", align 1
@.str.1 = private unnamed_addr constant [4 x i8] c"End\00", align 1
@.str.2 = private unnamed_addr constant [11 x i8] c"%d*3+1=%d\0A\00", align 1
@.str.3 = private unnamed_addr constant [9 x i8] c"%d/2=%d\0A\00", align 1

; Function Attrs: noinline nounwind uwtable
define dso_local i32 @main() #0 {
  %1 = alloca i32, align 4
  %2 = alloca i32, align 4
  %3 = alloca i32, align 4
  %4 = alloca i32, align 4
  %5 = alloca i32, align 4
  store i32 0, i32* %1, align 4
  %6 = call i32 (i8*, ...) @__isoc99_scanf(i8* getelementptr inbounds ([3 x i8], [3 x i8]* @.str, i64 0, i64 0), i32* %2)
  %7 = load i32, i32* %2, align 4
  %8 = icmp eq i32 %7, 1
  br i1 %8, label %9, label %11

9:                                                ; preds = %0
  %10 = call i32 (i8*, ...) @printf(i8* getelementptr inbounds ([4 x i8], [4 x i8]* @.str.1, i64 0, i64 0))
  br label %48

11:                                               ; preds = %0
  %12 = load i32, i32* %2, align 4
  store i32 %12, i32* %4, align 4
  store i32 0, i32* %3, align 4
  br label %13

13:                                               ; preds = %44, %11
  %14 = load i32, i32* %3, align 4
  %15 = icmp slt i32 %14, 10000
  br i1 %15, label %16, label %47

16:                                               ; preds = %13
  %17 = load i32, i32* %4, align 4
  %18 = srem i32 %17, 2
  %19 = icmp ne i32 %18, 0
  br i1 %19, label %20, label %31

20:                                               ; preds = %16
  %21 = load i32, i32* %4, align 4
  %22 = icmp ne i32 %21, 1
  br i1 %22, label %23, label %31

23:                                               ; preds = %20
  %24 = load i32, i32* %4, align 4
  store i32 %24, i32* %5, align 4
  %25 = load i32, i32* %4, align 4
  %26 = mul nsw i32 %25, 3
  %27 = add nsw i32 %26, 1
  store i32 %27, i32* %4, align 4
  %28 = load i32, i32* %5, align 4
  %29 = load i32, i32* %4, align 4
  %30 = call i32 (i8*, ...) @printf(i8* getelementptr inbounds ([11 x i8], [11 x i8]* @.str.2, i64 0, i64 0), i32 %28, i32 %29)
  br label %38

31:                                               ; preds = %20, %16
  %32 = load i32, i32* %4, align 4
  store i32 %32, i32* %5, align 4
  %33 = load i32, i32* %4, align 4
  %34 = sdiv i32 %33, 2
  store i32 %34, i32* %4, align 4
  %35 = load i32, i32* %5, align 4
  %36 = load i32, i32* %4, align 4
  %37 = call i32 (i8*, ...) @printf(i8* getelementptr inbounds ([9 x i8], [9 x i8]* @.str.3, i64 0, i64 0), i32 %35, i32 %36)
  br label %38

38:                                               ; preds = %31, %23
  %39 = load i32, i32* %4, align 4
  %40 = icmp eq i32 %39, 1
  br i1 %40, label %41, label %43

41:                                               ; preds = %38
  %42 = call i32 (i8*, ...) @printf(i8* getelementptr inbounds ([4 x i8], [4 x i8]* @.str.1, i64 0, i64 0))
  br label %47

43:                                               ; preds = %38
  br label %44

44:                                               ; preds = %43
  %45 = load i32, i32* %3, align 4
  %46 = add nsw i32 %45, 1
  store i32 %46, i32* %3, align 4
  br label %13

47:                                               ; preds = %41, %13
  br label %48

48:                                               ; preds = %47, %9
  ret i32 0
}

declare dso_local i32 @__isoc99_scanf(i8*, ...) #1

declare dso_local i32 @printf(i8*, ...) #1


!llvm.module.flags = !{!0}
!llvm.ident = !{!1}

!0 = !{i32 1, !"wchar_size", i32 4}
!1 = !{!"clang version 10.0.0-4ubuntu1 "}
